; Function Attrs: nounwind uwtable
define hidden void @zif_opcache_reset(ptr nocapture noundef readonly %0, ptr nocapture noundef writeonly %1) #0 {
  %3 = getelementptr inbounds i8, ptr %0, i64 44
  %4 = load i32, ptr %3, align 4
  %.not = icmp eq i32 %4, 0
  br i1 %.not, label %.critedge, label %5

5:                                                ; preds = %2
  tail call void @zend_wrong_parameters_none_error() #14
  %6 = load ptr, ptr getelementptr inbounds (%struct._zend_executor_globals, ptr @executor_globals, i64 0, i32 50), align 8
  %7 = icmp ne ptr %6, null
  tail call void @llvm.assume(i1 %7)
  br label %35

.critedge:                                        ; preds = %2
  %8 = load ptr, ptr getelementptr inbounds (%struct._zend_accel_globals, ptr @accel_globals, i64 0, i32 5, i32 25), align 8
  %.not.i = icmp eq ptr %8, null
  br i1 %.not.i, label %20, label %9

9:                                                ; preds = %.critedge
  %10 = load i8, ptr %8, align 1
  %.not6.i = icmp eq i8 %10, 0
  br i1 %.not6.i, label %20, label %11

11:                                               ; preds = %9
  %12 = tail call i64 @strlen(ptr noundef nonnull dereferenceable(1) %8) #15
  %13 = load ptr, ptr getelementptr inbounds (%struct._sapi_globals_struct, ptr @sapi_globals, i64 0, i32 1, i32 4), align 8
  %.not7.i = icmp eq ptr %13, null
  br i1 %.not7.i, label %18, label %14

14:                                               ; preds = %11
  %15 = tail call i64 @strlen(ptr noundef nonnull dereferenceable(1) %13) #15
  %16 = icmp ult i64 %15, %12
  br i1 %16, label %18, label %17

17:                                               ; preds = %14
  %bcmp.i = tail call i32 @bcmp(ptr nonnull %13, ptr nonnull %8, i64 %12)
  %.not8.i = icmp eq i32 %bcmp.i, 0
  br i1 %.not8.i, label %20, label %18

18:                                               ; preds = %17, %14, %11
  tail call void (i32, ptr, ...) @zend_error(i32 noundef 2, ptr noundef nonnull @.str.180) #14
  %19 = getelementptr inbounds i8, ptr %1, i64 8
  store i32 2, ptr %19, align 8
  br label %35

20:                                               ; preds = %17, %9, %.critedge
  %21 = load i8, ptr getelementptr inbounds (%struct._zend_accel_globals, ptr @accel_globals, i64 0, i32 1), align 1
  %22 = and i8 %21, 1
  %.not5 = icmp eq i8 %22, 0
  br i1 %.not5, label %31, label %23

23:                                               ; preds = %20
  %24 = load i8, ptr @accel_startup_ok, align 1
  %25 = and i8 %24, 1
  %.not6 = icmp eq i8 %25, 0
  br i1 %.not6, label %31, label %26

26:                                               ; preds = %23
  %27 = load ptr, ptr @accel_shared_globals, align 8
  %28 = getelementptr inbounds i8, ptr %27, i64 112
  %29 = load i8, ptr %28, align 8
  %30 = and i8 %29, 1
  %.not7 = icmp eq i8 %30, 0
  br i1 %.not7, label %31, label %33

31:                                               ; preds = %26, %23, %20
  %32 = getelementptr inbounds i8, ptr %1, i64 8
  store i32 2, ptr %32, align 8
  br label %35

33:                                               ; preds = %26
  tail call void @zend_shared_alloc_lock() #14
  tail call void @zend_accel_schedule_restart(i32 noundef 2) #14
  tail call void @zend_shared_alloc_unlock() #14
  %34 = getelementptr inbounds i8, ptr %1, i64 8
  store i32 3, ptr %34, align 8
  br label %35

35:                                               ; preds = %33, %31, %18, %5
  ret void
}